target datalayout = "e-m:e-p270:32:32-p271:32:32-p272:64:64-i64:64-i128:128-f80:128-n8:16:32:64-S128"
target triple = "x86_64-pc-linux-gnu"

%"class.boost::serialization::void_cast_detail::void_caster" = type { ptr, ptr, ptr, i64, ptr }

; Function Attrs: mustprogress uwtable
define noundef zeroext i1 @_ZNK5boost13serialization16void_cast_detail11void_casterltERKS2_(ptr noundef nonnull align 8 dereferenceable(40) %0, ptr noundef nonnull align 8 dereferenceable(40) %1) #1 align 2 {
  %3 = alloca i1, align 1
  %4 = alloca ptr, align 8
  %5 = alloca ptr, align 8
  store ptr %0, ptr %4, align 8, !tbaa !3
  store ptr %1, ptr %5, align 8, !tbaa !3
  %6 = load ptr, ptr %4, align 8
  %7 = getelementptr inbounds nuw %"class.boost::serialization::void_cast_detail::void_caster", ptr %6, i32 0, i32 1
  %8 = load ptr, ptr %7, align 8, !tbaa !7
  %9 = load ptr, ptr %5, align 8, !tbaa !3
  %10 = getelementptr inbounds nuw %"class.boost::serialization::void_cast_detail::void_caster", ptr %9, i32 0, i32 1
  %11 = load ptr, ptr %10, align 8, !tbaa !7
  %12 = icmp ne ptr %8, %11
  br i1 %12, label %13, label %30

13:                                               ; preds = %2
  %14 = getelementptr inbounds nuw %"class.boost::serialization::void_cast_detail::void_caster", ptr %6, i32 0, i32 1
  %15 = load ptr, ptr %14, align 8, !tbaa !7
  %16 = load ptr, ptr %5, align 8, !tbaa !3
  %17 = getelementptr inbounds nuw %"class.boost::serialization::void_cast_detail::void_caster", ptr %16, i32 0, i32 1
  %18 = load ptr, ptr %17, align 8, !tbaa !7
  %19 = call noundef zeroext i1 @_ZNK5boost13serialization18extended_type_infoltERKS1_(ptr noundef nonnull align 8 dereferenceable(24) %15, ptr noundef nonnull align 8 dereferenceable(24) %18)
  br i1 %19, label %20, label %21

20:                                               ; preds = %13
  store i1 true, ptr %3, align 1
  br label %45

21:                                               ; preds = %13
  %22 = load ptr, ptr %5, align 8, !tbaa !3
  %23 = getelementptr inbounds nuw %"class.boost::serialization::void_cast_detail::void_caster", ptr %22, i32 0, i32 1
  %24 = load ptr, ptr %23, align 8, !tbaa !7
  %25 = getelementptr inbounds nuw %"class.boost::serialization::void_cast_detail::void_caster", ptr %6, i32 0, i32 1
  %26 = load ptr, ptr %25, align 8, !tbaa !7
  %27 = call noundef zeroext i1 @_ZNK5boost13serialization18extended_type_infoltERKS1_(ptr noundef nonnull align 8 dereferenceable(24) %24, ptr noundef nonnull align 8 dereferenceable(24) %26)
  br i1 %27, label %28, label %29

28:                                               ; preds = %21
  store i1 false, ptr %3, align 1
  br label %45

29:                                               ; preds = %21
  br label %30

30:                                               ; preds = %29, %2
  %31 = getelementptr inbounds nuw %"class.boost::serialization::void_cast_detail::void_caster", ptr %6, i32 0, i32 2
  %32 = load ptr, ptr %31, align 8, !tbaa !10
  %33 = load ptr, ptr %5, align 8, !tbaa !3
  %34 = getelementptr inbounds nuw %"class.boost::serialization::void_cast_detail::void_caster", ptr %33, i32 0, i32 2
  %35 = load ptr, ptr %34, align 8, !tbaa !10
  %36 = icmp ne ptr %32, %35
  br i1 %36, label %37, label %44

37:                                               ; preds = %30
  %38 = getelementptr inbounds nuw %"class.boost::serialization::void_cast_detail::void_caster", ptr %6, i32 0, i32 2
  %39 = load ptr, ptr %38, align 8, !tbaa !10
  %40 = load ptr, ptr %5, align 8, !tbaa !3
  %41 = getelementptr inbounds nuw %"class.boost::serialization::void_cast_detail::void_caster", ptr %40, i32 0, i32 2
  %42 = load ptr, ptr %41, align 8, !tbaa !10
  %43 = call noundef zeroext i1 @_ZNK5boost13serialization18extended_type_infoltERKS1_(ptr noundef nonnull align 8 dereferenceable(24) %39, ptr noundef nonnull align 8 dereferenceable(24) %42)
  store i1 %43, ptr %3, align 1
  br label %45

44:                                               ; preds = %30
  store i1 false, ptr %3, align 1
  br label %45

45:                                               ; preds = %44, %37, %28, %20
  %46 = load i1, ptr %3, align 1
  ret i1 %46
}