; Function Attrs: mustprogress uwtable
define noundef zeroext i1 @_ZNK5boost13serialization16void_cast_detail11void_casterltERKS2_(ptr nocapture noundef nonnull readonly align 8 dereferenceable(40) %0, ptr nocapture noundef nonnull readonly align 8 dereferenceable(40) %1) local_unnamed_addr #1 align 2 {
  %3 = getelementptr inbounds nuw i8, ptr %0, i64 8
  %4 = load ptr, ptr %3, align 8, !tbaa !3
  %5 = getelementptr inbounds nuw i8, ptr %1, i64 8
  %6 = load ptr, ptr %5, align 8, !tbaa !3
  %.not = icmp eq ptr %4, %6
  br i1 %.not, label %13, label %7

7:                                                ; preds = %2
  %8 = tail call noundef zeroext i1 @_ZNK5boost13serialization18extended_type_infoltERKS1_(ptr noundef nonnull align 8 dereferenceable(24) %4, ptr noundef nonnull align 8 dereferenceable(24) %6)
  br i1 %8, label %20, label %9

9:                                                ; preds = %7
  %10 = load ptr, ptr %5, align 8, !tbaa !3
  %11 = load ptr, ptr %3, align 8, !tbaa !3
  %12 = tail call noundef zeroext i1 @_ZNK5boost13serialization18extended_type_infoltERKS1_(ptr noundef nonnull align 8 dereferenceable(24) %10, ptr noundef nonnull align 8 dereferenceable(24) %11)
  br i1 %12, label %20, label %13

13:                                               ; preds = %9, %2
  %14 = getelementptr inbounds nuw i8, ptr %0, i64 16
  %15 = load ptr, ptr %14, align 8, !tbaa !9
  %16 = getelementptr inbounds nuw i8, ptr %1, i64 16
  %17 = load ptr, ptr %16, align 8, !tbaa !9
  %.not11 = icmp eq ptr %15, %17
  br i1 %.not11, label %20, label %18

18:                                               ; preds = %13
  %19 = tail call noundef zeroext i1 @_ZNK5boost13serialization18extended_type_infoltERKS1_(ptr noundef nonnull align 8 dereferenceable(24) %15, ptr noundef nonnull align 8 dereferenceable(24) %17)
  br label %20

20:                                               ; preds = %13, %9, %7, %18
  %.0 = phi i1 [ %19, %18 ], [ true, %7 ], [ false, %9 ], [ false, %13 ]
  ret i1 %.0
}